target datalayout = "e-m:e-p270:32:32-p271:32:32-p272:64:64-i64:64-i128:128-f80:128-n8:16:32:64-S128"
target triple = "x86_64-pc-linux-gnu"

%class.MLRenderingToolbar = type { %class.QToolBar, %class.QList, i32, ptr, %class.QMap, %class.QMap.1, ptr }
%class.QToolBar = type { %class.QWidget }
%class.QWidget = type { %class.QObject, %class.QPaintDevice, ptr }
%class.QObject = type { ptr, %class.QScopedPointer }
%class.QScopedPointer = type { ptr }
%class.QPaintDevice = type { ptr, i16, ptr }
%class.QList = type { %union.anon }
%union.anon = type { %struct.QListData }
%struct.QListData = type { ptr }
%class.QMap = type { ptr }
%class.QMap.1 = type { ptr }

; Function Attrs: mustprogress uwtable
define void @_ZN22MLRenderingSideToolbar7initGuiEv(ptr noundef nonnull align 8 dereferenceable(96) %0) #5 align 2 personality ptr @__gxx_personality_v0 {
  %2 = alloca ptr, align 8
  %3 = alloca ptr, align 8
  %4 = alloca i32, align 4
  store ptr %0, ptr %2, align 8
  %5 = load ptr, ptr %2, align 8
  %6 = getelementptr inbounds %class.MLRenderingToolbar, ptr %5, i32 0, i32 6
  %7 = load ptr, ptr %6, align 8
  call void @_ZN12QActionGroup12setExclusiveEb(ptr noundef nonnull align 8 dereferenceable(16) %7, i1 noundef zeroext false)
  %8 = call noalias noundef nonnull ptr @_Znwm(i64 noundef 16) #15
  %9 = getelementptr inbounds %class.MLRenderingToolbar, ptr %5, i32 0, i32 2
  %10 = load i32, ptr %9, align 8
  invoke void @_ZN21MLRenderingBBoxActionC1EiP7QObject(ptr noundef nonnull align 8 dereferenceable(16) %8, i32 noundef %10, ptr noundef %5)
          to label %11 unwind label %50

11:                                               ; preds = %1
  %12 = load ptr, ptr %5, align 8
  %13 = getelementptr inbounds ptr, ptr %12, i64 52
  %14 = load ptr, ptr %13, align 8
  call void %14(ptr noundef nonnull align 8 dereferenceable(96) %5, ptr noundef %8)
  %15 = call noalias noundef nonnull ptr @_Znwm(i64 noundef 16) #15
  %16 = getelementptr inbounds %class.MLRenderingToolbar, ptr %5, i32 0, i32 2
  %17 = load i32, ptr %16, align 8
  invoke void @_ZN23MLRenderingPointsActionC1EiP7QObject(ptr noundef nonnull align 8 dereferenceable(16) %15, i32 noundef %17, ptr noundef %5)
          to label %18 unwind label %54

18:                                               ; preds = %11
  %19 = load ptr, ptr %5, align 8
  %20 = getelementptr inbounds ptr, ptr %19, i64 52
  %21 = load ptr, ptr %20, align 8
  call void %21(ptr noundef nonnull align 8 dereferenceable(96) %5, ptr noundef %15)
  %22 = call noalias noundef nonnull ptr @_Znwm(i64 noundef 16) #15
  %23 = getelementptr inbounds %class.MLRenderingToolbar, ptr %5, i32 0, i32 2
  %24 = load i32, ptr %23, align 8
  invoke void @_ZN21MLRenderingWireActionC1EiP7QObject(ptr noundef nonnull align 8 dereferenceable(16) %22, i32 noundef %24, ptr noundef %5)
          to label %25 unwind label %58

25:                                               ; preds = %18
  %26 = load ptr, ptr %5, align 8
  %27 = getelementptr inbounds ptr, ptr %26, i64 52
  %28 = load ptr, ptr %27, align 8
  call void %28(ptr noundef nonnull align 8 dereferenceable(96) %5, ptr noundef %22)
  %29 = call noalias noundef nonnull ptr @_Znwm(i64 noundef 16) #15
  %30 = getelementptr inbounds %class.MLRenderingToolbar, ptr %5, i32 0, i32 2
  %31 = load i32, ptr %30, align 8
  invoke void @_ZN22MLRenderingSolidActionC1EiP7QObject(ptr noundef nonnull align 8 dereferenceable(16) %29, i32 noundef %31, ptr noundef %5)
          to label %32 unwind label %62

32:                                               ; preds = %25
  %33 = load ptr, ptr %5, align 8
  %34 = getelementptr inbounds ptr, ptr %33, i64 52
  %35 = load ptr, ptr %34, align 8
  call void %35(ptr noundef nonnull align 8 dereferenceable(96) %5, ptr noundef %29)
  %36 = call noalias noundef nonnull ptr @_Znwm(i64 noundef 16) #15
  %37 = getelementptr inbounds %class.MLRenderingToolbar, ptr %5, i32 0, i32 2
  %38 = load i32, ptr %37, align 8
  invoke void @_ZN26MLRenderingSelectionActionC1EiP7QObject(ptr noundef nonnull align 8 dereferenceable(16) %36, i32 noundef %38, ptr noundef %5)
          to label %39 unwind label %66

39:                                               ; preds = %32
  %40 = load ptr, ptr %5, align 8
  %41 = getelementptr inbounds ptr, ptr %40, i64 52
  %42 = load ptr, ptr %41, align 8
  call void %42(ptr noundef nonnull align 8 dereferenceable(96) %5, ptr noundef %36)
  %43 = call noalias noundef nonnull ptr @_Znwm(i64 noundef 16) #15
  %44 = getelementptr inbounds %class.MLRenderingToolbar, ptr %5, i32 0, i32 2
  %45 = load i32, ptr %44, align 8
  invoke void @_ZN30MLRenderingEdgeDecoratorActionC1EiP7QObject(ptr noundef nonnull align 8 dereferenceable(16) %43, i32 noundef %45, ptr noundef %5)
          to label %46 unwind label %70

46:                                               ; preds = %39
  %47 = load ptr, ptr %5, align 8
  %48 = getelementptr inbounds ptr, ptr %47, i64 52
  %49 = load ptr, ptr %48, align 8
  call void %49(ptr noundef nonnull align 8 dereferenceable(96) %5, ptr noundef %43)
  ret void

50:                                               ; preds = %1
  %51 = landingpad { ptr, i32 }
          cleanup
  %52 = extractvalue { ptr, i32 } %51, 0
  store ptr %52, ptr %3, align 8
  %53 = extractvalue { ptr, i32 } %51, 1
  store i32 %53, ptr %4, align 4
  call void @_ZdlPv(ptr noundef %8) #16
  br label %74

54:                                               ; preds = %11
  %55 = landingpad { ptr, i32 }
          cleanup
  %56 = extractvalue { ptr, i32 } %55, 0
  store ptr %56, ptr %3, align 8
  %57 = extractvalue { ptr, i32 } %55, 1
  store i32 %57, ptr %4, align 4
  call void @_ZdlPv(ptr noundef %15) #16
  br label %74

58:                                               ; preds = %18
  %59 = landingpad { ptr, i32 }
          cleanup
  %60 = extractvalue { ptr, i32 } %59, 0
  store ptr %60, ptr %3, align 8
  %61 = extractvalue { ptr, i32 } %59, 1
  store i32 %61, ptr %4, align 4
  call void @_ZdlPv(ptr noundef %22) #16
  br label %74

62:                                               ; preds = %25
  %63 = landingpad { ptr, i32 }
          cleanup
  %64 = extractvalue { ptr, i32 } %63, 0
  store ptr %64, ptr %3, align 8
  %65 = extractvalue { ptr, i32 } %63, 1
  store i32 %65, ptr %4, align 4
  call void @_ZdlPv(ptr noundef %29) #16
  br label %74

66:                                               ; preds = %32
  %67 = landingpad { ptr, i32 }
          cleanup
  %68 = extractvalue { ptr, i32 } %67, 0
  store ptr %68, ptr %3, align 8
  %69 = extractvalue { ptr, i32 } %67, 1
  store i32 %69, ptr %4, align 4
  call void @_ZdlPv(ptr noundef %36) #16
  br label %74

70:                                               ; preds = %39
  %71 = landingpad { ptr, i32 }
          cleanup
  %72 = extractvalue { ptr, i32 } %71, 0
  store ptr %72, ptr %3, align 8
  %73 = extractvalue { ptr, i32 } %71, 1
  store i32 %73, ptr %4, align 4
  call void @_ZdlPv(ptr noundef %43) #16
  br label %74

74:                                               ; preds = %70, %66, %62, %58, %54, %50
  %75 = load ptr, ptr %3, align 8
  %76 = load i32, ptr %4, align 4
  %77 = insertvalue { ptr, i32 } poison, ptr %75, 0
  %78 = insertvalue { ptr, i32 } %77, i32 %76, 1
  resume { ptr, i32 } %78
}