; Function Attrs: mustprogress uwtable
define void @_ZN22MLRenderingSideToolbar7initGuiEv(ptr noundef nonnull align 8 dereferenceable(96) %0) local_unnamed_addr #3 align 2 personality ptr @__gxx_personality_v0 {
  %2 = getelementptr inbounds i8, ptr %0, i64 88
  %3 = load ptr, ptr %2, align 8
  tail call void @_ZN12QActionGroup12setExclusiveEb(ptr noundef nonnull align 8 dereferenceable(16) %3, i1 noundef zeroext false)
  %4 = tail call noalias noundef nonnull dereferenceable(16) ptr @_Znwm(i64 noundef 16) #22
  %5 = getelementptr inbounds i8, ptr %0, i64 56
  %6 = load i32, ptr %5, align 8
  invoke void @_ZN21MLRenderingBBoxActionC1EiP7QObject(ptr noundef nonnull align 8 dereferenceable(16) %4, i32 noundef %6, ptr noundef nonnull %0)
          to label %7 unwind label %41

7:                                                ; preds = %1
  %8 = load ptr, ptr %0, align 8
  %9 = getelementptr inbounds i8, ptr %8, i64 416
  %10 = load ptr, ptr %9, align 8
  tail call void %10(ptr noundef nonnull align 8 dereferenceable(96) %0, ptr noundef nonnull %4)
  %11 = tail call noalias noundef nonnull dereferenceable(16) ptr @_Znwm(i64 noundef 16) #22
  %12 = load i32, ptr %5, align 8
  invoke void @_ZN23MLRenderingPointsActionC1EiP7QObject(ptr noundef nonnull align 8 dereferenceable(16) %11, i32 noundef %12, ptr noundef nonnull %0)
          to label %13 unwind label %43

13:                                               ; preds = %7
  %14 = load ptr, ptr %0, align 8
  %15 = getelementptr inbounds i8, ptr %14, i64 416
  %16 = load ptr, ptr %15, align 8
  tail call void %16(ptr noundef nonnull align 8 dereferenceable(96) %0, ptr noundef nonnull %11)
  %17 = tail call noalias noundef nonnull dereferenceable(16) ptr @_Znwm(i64 noundef 16) #22
  %18 = load i32, ptr %5, align 8
  invoke void @_ZN21MLRenderingWireActionC1EiP7QObject(ptr noundef nonnull align 8 dereferenceable(16) %17, i32 noundef %18, ptr noundef nonnull %0)
          to label %19 unwind label %45

19:                                               ; preds = %13
  %20 = load ptr, ptr %0, align 8
  %21 = getelementptr inbounds i8, ptr %20, i64 416
  %22 = load ptr, ptr %21, align 8
  tail call void %22(ptr noundef nonnull align 8 dereferenceable(96) %0, ptr noundef nonnull %17)
  %23 = tail call noalias noundef nonnull dereferenceable(16) ptr @_Znwm(i64 noundef 16) #22
  %24 = load i32, ptr %5, align 8
  invoke void @_ZN22MLRenderingSolidActionC1EiP7QObject(ptr noundef nonnull align 8 dereferenceable(16) %23, i32 noundef %24, ptr noundef nonnull %0)
          to label %25 unwind label %47

25:                                               ; preds = %19
  %26 = load ptr, ptr %0, align 8
  %27 = getelementptr inbounds i8, ptr %26, i64 416
  %28 = load ptr, ptr %27, align 8
  tail call void %28(ptr noundef nonnull align 8 dereferenceable(96) %0, ptr noundef nonnull %23)
  %29 = tail call noalias noundef nonnull dereferenceable(16) ptr @_Znwm(i64 noundef 16) #22
  %30 = load i32, ptr %5, align 8
  invoke void @_ZN26MLRenderingSelectionActionC1EiP7QObject(ptr noundef nonnull align 8 dereferenceable(16) %29, i32 noundef %30, ptr noundef nonnull %0)
          to label %31 unwind label %49

31:                                               ; preds = %25
  %32 = load ptr, ptr %0, align 8
  %33 = getelementptr inbounds i8, ptr %32, i64 416
  %34 = load ptr, ptr %33, align 8
  tail call void %34(ptr noundef nonnull align 8 dereferenceable(96) %0, ptr noundef nonnull %29)
  %35 = tail call noalias noundef nonnull dereferenceable(16) ptr @_Znwm(i64 noundef 16) #22
  %36 = load i32, ptr %5, align 8
  invoke void @_ZN30MLRenderingEdgeDecoratorActionC1EiP7QObject(ptr noundef nonnull align 8 dereferenceable(16) %35, i32 noundef %36, ptr noundef nonnull %0)
          to label %37 unwind label %51

37:                                               ; preds = %31
  %38 = load ptr, ptr %0, align 8
  %39 = getelementptr inbounds i8, ptr %38, i64 416
  %40 = load ptr, ptr %39, align 8
  tail call void %40(ptr noundef nonnull align 8 dereferenceable(96) %0, ptr noundef nonnull %35)
  ret void

41:                                               ; preds = %1
  %42 = landingpad { ptr, i32 }
          cleanup
  br label %53

43:                                               ; preds = %7
  %44 = landingpad { ptr, i32 }
          cleanup
  br label %53

45:                                               ; preds = %13
  %46 = landingpad { ptr, i32 }
          cleanup
  br label %53

47:                                               ; preds = %19
  %48 = landingpad { ptr, i32 }
          cleanup
  br label %53

49:                                               ; preds = %25
  %50 = landingpad { ptr, i32 }
          cleanup
  br label %53

51:                                               ; preds = %31
  %52 = landingpad { ptr, i32 }
          cleanup
  br label %53

53:                                               ; preds = %51, %49, %47, %45, %43, %41
  %.sink = phi ptr [ %35, %51 ], [ %29, %49 ], [ %23, %47 ], [ %17, %45 ], [ %11, %43 ], [ %4, %41 ]
  %.pn = phi { ptr, i32 } [ %52, %51 ], [ %50, %49 ], [ %48, %47 ], [ %46, %45 ], [ %44, %43 ], [ %42, %41 ]
  tail call void @_ZdlPv(ptr noundef nonnull %.sink) #24
  resume { ptr, i32 } %.pn
}